target datalayout = "e-m:e-p270:32:32-p271:32:32-p272:64:64-i64:64-i128:128-f80:128-n8:16:32:64-S128"
target triple = "x86_64-unknown-linux-gnu"

%struct.QEDCheck = type { ptr, ptr, i8, i64, ptr, %struct.QEDRequest }
%struct.QEDRequest = type { ptr }
%struct.BDRVQEDState = type { ptr, %struct.QEDHeader, %struct.CoMutex, ptr, %struct.L2TableCache, i32, i32, i32, i32, i64, ptr, %struct.CoQueue, i8, ptr }
%struct.QEDHeader = type { i32, i32, i32, i32, i64, i64, i64, i64, i64, i32, i32 }
%struct.CoMutex = type { i32, ptr, %struct.anon, %struct.anon, i32, i32, ptr }
%struct.anon = type { ptr }
%struct.L2TableCache = type { %union.anon, i32 }
%union.anon = type { %struct.QTailQLink }
%struct.QTailQLink = type { ptr, ptr }
%struct.CoQueue = type { %struct.anon.0 }
%struct.anon.0 = type { ptr, ptr }
%struct.BdrvCheckResult = type { i32, i32, i32, i32, i32, i64, %struct.BlockFragInfo }
%struct.BlockFragInfo = type { i64, i64, i64, i64 }

; Function Attrs: nounwind sspstrong uwtable
define internal zeroext i1 @qed_test_bit(ptr noundef %bitmap, i64 noundef %n) #0 {
entry:
  %bitmap.addr = alloca ptr, align 8
  %n.addr = alloca i64, align 8
  store ptr %bitmap, ptr %bitmap.addr, align 8
  store i64 %n, ptr %n.addr, align 8
  %0 = load ptr, ptr %bitmap.addr, align 8
  %1 = load i64, ptr %n.addr, align 8
  %div = udiv i64 %1, 32
  %arrayidx = getelementptr i32, ptr %0, i64 %div
  %2 = load i32, ptr %arrayidx, align 4
  %3 = load i64, ptr %n.addr, align 8
  %rem = urem i64 %3, 32
  %sh_prom = trunc i64 %rem to i32
  %shl = shl i32 1, %sh_prom
  %and = and i32 %2, %shl
  %tobool = icmp ne i32 %and, 0
  %lnot = xor i1 %tobool, true
  %lnot1 = xor i1 %lnot, true
  ret i1 %lnot1
}

; Function Attrs: nounwind sspstrong uwtable
define internal i64 @qed_start_of_cluster(ptr noundef %s, i64 noundef %offset) #0 {
entry:
  %s.addr = alloca ptr, align 8
  %offset.addr = alloca i64, align 8
  store ptr %s, ptr %s.addr, align 8
  store i64 %offset, ptr %offset.addr, align 8
  %0 = load i64, ptr %offset.addr, align 8
  %1 = load ptr, ptr %s.addr, align 8
  %header = getelementptr inbounds %struct.BDRVQEDState, ptr %1, i32 0, i32 1
  %cluster_size = getelementptr inbounds %struct.QEDHeader, ptr %header, i32 0, i32 1
  %2 = load i32, ptr %cluster_size, align 4
  %sub = sub i32 %2, 1
  %conv = zext i32 %sub to i64
  %not = xor i64 %conv, -1
  %and = and i64 %0, %not
  ret i64 %and
}

; Function Attrs: nounwind sspstrong uwtable
define internal void @qed_check_mark_clean(ptr noundef %s, ptr noundef %result) #0 {
entry:
  %s.addr = alloca ptr, align 8
  %result.addr = alloca ptr, align 8
  store ptr %s, ptr %s.addr, align 8
  store ptr %result, ptr %result.addr, align 8
  %0 = load ptr, ptr %result.addr, align 8
  %corruptions = getelementptr inbounds %struct.BdrvCheckResult, ptr %0, i32 0, i32 0
  %1 = load i32, ptr %corruptions, align 8
  %cmp = icmp sgt i32 %1, 0
  br i1 %cmp, label %if.then, label %lor.lhs.false

lor.lhs.false:                                    ; preds = %entry
  %2 = load ptr, ptr %result.addr, align 8
  %check_errors = getelementptr inbounds %struct.BdrvCheckResult, ptr %2, i32 0, i32 2
  %3 = load i32, ptr %check_errors, align 8
  %cmp1 = icmp sgt i32 %3, 0
  br i1 %cmp1, label %if.then, label %if.end

if.then:                                          ; preds = %lor.lhs.false, %entry
  br label %return

if.end:                                           ; preds = %lor.lhs.false
  %4 = load ptr, ptr %s.addr, align 8
  %header = getelementptr inbounds %struct.BDRVQEDState, ptr %4, i32 0, i32 1
  %features = getelementptr inbounds %struct.QEDHeader, ptr %header, i32 0, i32 4
  %5 = load i64, ptr %features, align 8
  %and = and i64 %5, 2
  %tobool = icmp ne i64 %and, 0
  br i1 %tobool, label %if.end3, label %if.then2

if.then2:                                         ; preds = %if.end
  br label %return

if.end3:                                          ; preds = %if.end
  %6 = load ptr, ptr %s.addr, align 8
  %bs = getelementptr inbounds %struct.BDRVQEDState, ptr %6, i32 0, i32 0
  %7 = load ptr, ptr %bs, align 8
  %call = call i32 @bdrv_co_flush(ptr noundef %7)
  %8 = load ptr, ptr %s.addr, align 8
  %header4 = getelementptr inbounds %struct.BDRVQEDState, ptr %8, i32 0, i32 1
  %features5 = getelementptr inbounds %struct.QEDHeader, ptr %header4, i32 0, i32 4
  %9 = load i64, ptr %features5, align 8
  %and6 = and i64 %9, -3
  store i64 %and6, ptr %features5, align 8
  %10 = load ptr, ptr %s.addr, align 8
  %call7 = call i32 @qed_write_header_sync(ptr noundef %10)
  br label %return

return:                                           ; preds = %if.end3, %if.then2, %if.then
  ret void
}

; Function Attrs: nounwind sspstrong uwtable
define internal void @qed_check_for_leaks(ptr noundef %check) #0 {
entry:
  %check.addr = alloca ptr, align 8
  %s = alloca ptr, align 8
  %i = alloca i64, align 8
  store ptr %check, ptr %check.addr, align 8
  %0 = load ptr, ptr %check.addr, align 8
  %s1 = getelementptr inbounds %struct.QEDCheck, ptr %0, i32 0, i32 0
  %1 = load ptr, ptr %s1, align 8
  store ptr %1, ptr %s, align 8
  %2 = load ptr, ptr %s, align 8
  %header = getelementptr inbounds %struct.BDRVQEDState, ptr %2, i32 0, i32 1
  %header_size = getelementptr inbounds %struct.QEDHeader, ptr %header, i32 0, i32 3
  %3 = load i32, ptr %header_size, align 4
  %conv = zext i32 %3 to i64
  store i64 %conv, ptr %i, align 8
  br label %for.cond

for.cond:                                         ; preds = %for.inc, %entry
  %4 = load i64, ptr %i, align 8
  %5 = load ptr, ptr %check.addr, align 8
  %nclusters = getelementptr inbounds %struct.QEDCheck, ptr %5, i32 0, i32 3
  %6 = load i64, ptr %nclusters, align 8
  %cmp = icmp ult i64 %4, %6
  br i1 %cmp, label %for.body, label %for.end

for.body:                                         ; preds = %for.cond
  %7 = load ptr, ptr %check.addr, align 8
  %used_clusters = getelementptr inbounds %struct.QEDCheck, ptr %7, i32 0, i32 4
  %8 = load ptr, ptr %used_clusters, align 8
  %9 = load i64, ptr %i, align 8
  %call = call zeroext i1 @qed_test_bit(ptr noundef %8, i64 noundef %9)
  br i1 %call, label %if.end, label %if.then

if.then:                                          ; preds = %for.body
  %10 = load ptr, ptr %check.addr, align 8
  %result = getelementptr inbounds %struct.QEDCheck, ptr %10, i32 0, i32 1
  %11 = load ptr, ptr %result, align 8
  %leaks = getelementptr inbounds %struct.BdrvCheckResult, ptr %11, i32 0, i32 1
  %12 = load i32, ptr %leaks, align 4
  %inc = add i32 %12, 1
  store i32 %inc, ptr %leaks, align 4
  br label %if.end

if.end:                                           ; preds = %if.then, %for.body
  br label %for.inc

for.inc:                                          ; preds = %if.end
  %13 = load i64, ptr %i, align 8
  %inc3 = add i64 %13, 1
  store i64 %inc3, ptr %i, align 8
  br label %for.cond, !llvm.loop !7

for.end:                                          ; preds = %for.cond
  ret void
}

; Function Attrs: nounwind sspstrong uwtable
define internal i64 @qed_bytes_to_clusters(ptr noundef %s, i64 noundef %bytes) #0 {
entry:
  %s.addr = alloca ptr, align 8
  %bytes.addr = alloca i64, align 8
  store ptr %s, ptr %s.addr, align 8
  store i64 %bytes, ptr %bytes.addr, align 8
  %0 = load ptr, ptr %s.addr, align 8
  %1 = load i64, ptr %bytes.addr, align 8
  %2 = load ptr, ptr %s.addr, align 8
  %header = getelementptr inbounds %struct.BDRVQEDState, ptr %2, i32 0, i32 1
  %cluster_size = getelementptr inbounds %struct.QEDHeader, ptr %header, i32 0, i32 1
  %3 = load i32, ptr %cluster_size, align 4
  %sub = sub i32 %3, 1
  %conv = zext i32 %sub to i64
  %add = add i64 %1, %conv
  %call = call i64 @qed_start_of_cluster(ptr noundef %0, i64 noundef %add)
  %4 = load ptr, ptr %s.addr, align 8
  %header1 = getelementptr inbounds %struct.BDRVQEDState, ptr %4, i32 0, i32 1
  %cluster_size2 = getelementptr inbounds %struct.QEDHeader, ptr %header1, i32 0, i32 1
  %5 = load i32, ptr %cluster_size2, align 4
  %sub3 = sub i32 %5, 1
  %conv4 = zext i32 %sub3 to i64
  %div = udiv i64 %call, %conv4
  ret i64 %div
}

; Function Attrs: nounwind sspstrong uwtable
define dso_local i32 @qed_check(ptr noundef %s, ptr noundef %result, i1 noundef zeroext %fix) #0 {
entry:
  %retval = alloca i32, align 4
  %s.addr = alloca ptr, align 8
  %result.addr = alloca ptr, align 8
  %fix.addr = alloca i8, align 1
  %check = alloca %struct.QEDCheck, align 8
  %ret = alloca i32, align 4
  store ptr %s, ptr %s.addr, align 8
  store ptr %result, ptr %result.addr, align 8
  %frombool = zext i1 %fix to i8
  store i8 %frombool, ptr %fix.addr, align 1
  %s1 = getelementptr inbounds %struct.QEDCheck, ptr %check, i32 0, i32 0
  %0 = load ptr, ptr %s.addr, align 8
  store ptr %0, ptr %s1, align 8
  %result2 = getelementptr inbounds %struct.QEDCheck, ptr %check, i32 0, i32 1
  %1 = load ptr, ptr %result.addr, align 8
  store ptr %1, ptr %result2, align 8
  %fix3 = getelementptr inbounds %struct.QEDCheck, ptr %check, i32 0, i32 2
  %2 = load i8, ptr %fix.addr, align 1
  %tobool = trunc i8 %2 to i1
  %frombool4 = zext i1 %tobool to i8
  store i8 %frombool4, ptr %fix3, align 8
  %nclusters = getelementptr inbounds %struct.QEDCheck, ptr %check, i32 0, i32 3
  %3 = load ptr, ptr %s.addr, align 8
  %4 = load ptr, ptr %s.addr, align 8
  %file_size = getelementptr inbounds %struct.BDRVQEDState, ptr %4, i32 0, i32 9
  %5 = load i64, ptr %file_size, align 8
  %call = call i64 @qed_bytes_to_clusters(ptr noundef %3, i64 noundef %5)
  store i64 %call, ptr %nclusters, align 8
  %used_clusters = getelementptr inbounds %struct.QEDCheck, ptr %check, i32 0, i32 4
  store ptr null, ptr %used_clusters, align 8
  %request = getelementptr inbounds %struct.QEDCheck, ptr %check, i32 0, i32 5
  %l2_table = getelementptr inbounds %struct.QEDRequest, ptr %request, i32 0, i32 0
  store ptr null, ptr %l2_table, align 8
  %nclusters5 = getelementptr inbounds %struct.QEDCheck, ptr %check, i32 0, i32 3
  %6 = load i64, ptr %nclusters5, align 8
  %add = add i64 %6, 31
  %div = udiv i64 %add, 32
  %call6 = call noalias ptr @g_try_malloc0_n(i64 noundef %div, i64 noundef 4) #3
  %used_clusters7 = getelementptr inbounds %struct.QEDCheck, ptr %check, i32 0, i32 4
  store ptr %call6, ptr %used_clusters7, align 8
  %nclusters8 = getelementptr inbounds %struct.QEDCheck, ptr %check, i32 0, i32 3
  %7 = load i64, ptr %nclusters8, align 8
  %tobool9 = icmp ne i64 %7, 0
  br i1 %tobool9, label %land.lhs.true, label %if.end

land.lhs.true:                                    ; preds = %entry
  %used_clusters10 = getelementptr inbounds %struct.QEDCheck, ptr %check, i32 0, i32 4
  %8 = load ptr, ptr %used_clusters10, align 8
  %cmp = icmp eq ptr %8, null
  br i1 %cmp, label %if.then, label %if.end

if.then:                                          ; preds = %land.lhs.true
  store i32 -12, ptr %retval, align 4
  br label %return

if.end:                                           ; preds = %land.lhs.true, %entry
  %9 = load ptr, ptr %s.addr, align 8
  %header = getelementptr inbounds %struct.BDRVQEDState, ptr %9, i32 0, i32 1
  %image_size = getelementptr inbounds %struct.QEDHeader, ptr %header, i32 0, i32 8
  %10 = load i64, ptr %image_size, align 8
  %11 = load ptr, ptr %s.addr, align 8
  %header11 = getelementptr inbounds %struct.BDRVQEDState, ptr %11, i32 0, i32 1
  %cluster_size = getelementptr inbounds %struct.QEDHeader, ptr %header11, i32 0, i32 1
  %12 = load i32, ptr %cluster_size, align 4
  %conv = zext i32 %12 to i64
  %add12 = add i64 %10, %conv
  %sub = sub i64 %add12, 1
  %13 = load ptr, ptr %s.addr, align 8
  %header13 = getelementptr inbounds %struct.BDRVQEDState, ptr %13, i32 0, i32 1
  %cluster_size14 = getelementptr inbounds %struct.QEDHeader, ptr %header13, i32 0, i32 1
  %14 = load i32, ptr %cluster_size14, align 4
  %conv15 = zext i32 %14 to i64
  %div16 = udiv i64 %sub, %conv15
  %result17 = getelementptr inbounds %struct.QEDCheck, ptr %check, i32 0, i32 1
  %15 = load ptr, ptr %result17, align 8
  %bfi = getelementptr inbounds %struct.BdrvCheckResult, ptr %15, i32 0, i32 6
  %total_clusters = getelementptr inbounds %struct.BlockFragInfo, ptr %bfi, i32 0, i32 1
  store i64 %div16, ptr %total_clusters, align 8
  %16 = load ptr, ptr %s.addr, align 8
  %l1_table = getelementptr inbounds %struct.BDRVQEDState, ptr %16, i32 0, i32 3
  %17 = load ptr, ptr %l1_table, align 8
  %call18 = call i32 @qed_check_l1_table(ptr noundef %check, ptr noundef %17)
  store i32 %call18, ptr %ret, align 4
  %18 = load i32, ptr %ret, align 4
  %cmp19 = icmp eq i32 %18, 0
  br i1 %cmp19, label %if.then21, label %if.end25

if.then21:                                        ; preds = %if.end
  call void @qed_check_for_leaks(ptr noundef %check)
  %19 = load i8, ptr %fix.addr, align 1
  %tobool22 = trunc i8 %19 to i1
  br i1 %tobool22, label %if.then23, label %if.end24

if.then23:                                        ; preds = %if.then21
  %20 = load ptr, ptr %s.addr, align 8
  %21 = load ptr, ptr %result.addr, align 8
  call void @qed_check_mark_clean(ptr noundef %20, ptr noundef %21)
  br label %if.end24

if.end24:                                         ; preds = %if.then23, %if.then21
  br label %if.end25

if.end25:                                         ; preds = %if.end24, %if.end
  %used_clusters26 = getelementptr inbounds %struct.QEDCheck, ptr %check, i32 0, i32 4
  %22 = load ptr, ptr %used_clusters26, align 8
  call void @g_free(ptr noundef %22)
  %23 = load i32, ptr %ret, align 4
  store i32 %23, ptr %retval, align 4
  br label %return

return:                                           ; preds = %if.end25, %if.then
  %24 = load i32, ptr %retval, align 4
  ret i32 %24
}