; Function Attrs: nounwind sspstrong uwtable
define dso_local i32 @qed_check(ptr noundef %s, ptr noundef %result, i1 noundef zeroext %fix) #0 {
entry:
  %check = alloca %struct.QEDCheck, align 8
  %frombool = zext i1 %fix to i8
  store ptr %s, ptr %check, align 8
  %result2 = getelementptr inbounds nuw i8, ptr %check, i64 8
  store ptr %result, ptr %result2, align 8
  %fix3 = getelementptr inbounds nuw i8, ptr %check, i64 16
  store i8 %frombool, ptr %fix3, align 8
  %nclusters = getelementptr inbounds nuw i8, ptr %check, i64 24
  %file_size = getelementptr inbounds nuw i8, ptr %s, i64 168
  %0 = load i64, ptr %file_size, align 8
  %1 = getelementptr i8, ptr %s, i64 12
  %s.val = load i32, ptr %1, align 4
  %sub.i = add i32 %s.val, -1
  %conv.i = zext i32 %sub.i to i64
  %add.i = add i64 %0, %conv.i
  %not.i.i = xor i64 %conv.i, -1
  %and.i.i = and i64 %add.i, %not.i.i
  %div.i = udiv i64 %and.i.i, %conv.i
  store i64 %div.i, ptr %nclusters, align 8
  %used_clusters = getelementptr inbounds nuw i8, ptr %check, i64 32
  %add = add i64 %div.i, 31
  %div11 = lshr i64 %add, 5
  %2 = getelementptr inbounds nuw i8, ptr %check, i64 40
  store i64 0, ptr %2, align 8
  %call6 = tail call noalias ptr @g_try_malloc0_n(i64 noundef %div11, i64 noundef 4) #3
  store ptr %call6, ptr %used_clusters, align 8
  %tobool9 = icmp uge i64 %and.i.i, %conv.i
  %cmp = icmp eq ptr %call6, null
  %or.cond = select i1 %tobool9, i1 %cmp, i1 false
  br i1 %or.cond, label %return, label %if.end

if.end:                                           ; preds = %entry
  %image_size = getelementptr inbounds nuw i8, ptr %s, i64 56
  %3 = load i64, ptr %image_size, align 8
  %4 = load i32, ptr %1, align 4
  %conv = zext i32 %4 to i64
  %add12 = add i64 %3, -1
  %sub = add i64 %add12, %conv
  %div16 = udiv i64 %sub, %conv
  %total_clusters = getelementptr inbounds nuw i8, ptr %result, i64 40
  store i64 %div16, ptr %total_clusters, align 8
  %l1_table = getelementptr inbounds nuw i8, ptr %s, i64 120
  %5 = load ptr, ptr %l1_table, align 8
  %call18 = call i32 @qed_check_l1_table(ptr noundef nonnull %check, ptr noundef %5)
  %cmp19 = icmp eq i32 %call18, 0
  br i1 %cmp19, label %if.then21, label %if.end25

if.then21:                                        ; preds = %if.end
  %6 = load ptr, ptr %check, align 8
  %header_size.i = getelementptr inbounds nuw i8, ptr %6, i64 20
  %7 = load i32, ptr %header_size.i, align 4
  %conv.i12 = zext i32 %7 to i64
  %8 = load i64, ptr %nclusters, align 8
  %cmp6.i = icmp ugt i64 %8, %conv.i12
  br i1 %cmp6.i, label %for.body.i, label %qed_check_for_leaks.exit

for.body.i:                                       ; preds = %if.then21, %for.inc.i
  %9 = phi i64 [ %15, %for.inc.i ], [ %8, %if.then21 ]
  %i.07.i = phi i64 [ %inc3.i, %for.inc.i ], [ %conv.i12, %if.then21 ]
  %10 = load ptr, ptr %used_clusters, align 8
  %div2.i.i = lshr i64 %i.07.i, 5
  %arrayidx.i.i = getelementptr i32, ptr %10, i64 %div2.i.i
  %11 = load i32, ptr %arrayidx.i.i, align 4
  %12 = trunc i64 %i.07.i to i32
  %sh_prom.i.i = and i32 %12, 31
  %shl.i.i = shl nuw i32 1, %sh_prom.i.i
  %and.i.i13 = and i32 %shl.i.i, %11
  %tobool.i.not.i = icmp eq i32 %and.i.i13, 0
  br i1 %tobool.i.not.i, label %if.then.i, label %for.inc.i

if.then.i:                                        ; preds = %for.body.i
  %13 = load ptr, ptr %result2, align 8
  %leaks.i = getelementptr inbounds nuw i8, ptr %13, i64 4
  %14 = load i32, ptr %leaks.i, align 4
  %inc.i = add i32 %14, 1
  store i32 %inc.i, ptr %leaks.i, align 4
  %.pre.i = load i64, ptr %nclusters, align 8
  br label %for.inc.i

for.inc.i:                                        ; preds = %if.then.i, %for.body.i
  %15 = phi i64 [ %9, %for.body.i ], [ %.pre.i, %if.then.i ]
  %inc3.i = add nuw i64 %i.07.i, 1
  %cmp.i = icmp ult i64 %inc3.i, %15
  br i1 %cmp.i, label %for.body.i, label %qed_check_for_leaks.exit, !llvm.loop !5

qed_check_for_leaks.exit:                         ; preds = %for.inc.i, %if.then21
  br i1 %fix, label %if.then23, label %if.end25

if.then23:                                        ; preds = %qed_check_for_leaks.exit
  %16 = load i32, ptr %result, align 8
  %cmp.i14 = icmp sgt i32 %16, 0
  br i1 %cmp.i14, label %if.end25, label %lor.lhs.false.i

lor.lhs.false.i:                                  ; preds = %if.then23
  %check_errors.i = getelementptr inbounds nuw i8, ptr %result, i64 8
  %17 = load i32, ptr %check_errors.i, align 8
  %cmp1.i = icmp sgt i32 %17, 0
  br i1 %cmp1.i, label %if.end25, label %if.end.i

if.end.i:                                         ; preds = %lor.lhs.false.i
  %features.i = getelementptr inbounds nuw i8, ptr %s, i64 24
  %18 = load i64, ptr %features.i, align 8
  %and.i = and i64 %18, 2
  %tobool.not.i = icmp eq i64 %and.i, 0
  br i1 %tobool.not.i, label %if.end25, label %if.end3.i

if.end3.i:                                        ; preds = %if.end.i
  %19 = load ptr, ptr %s, align 8
  %call.i = call i32 @bdrv_co_flush(ptr noundef %19) #4
  %20 = load i64, ptr %features.i, align 8
  %and6.i = and i64 %20, -3
  store i64 %and6.i, ptr %features.i, align 8
  %call7.i = call i32 @qed_write_header_sync(ptr noundef nonnull %s) #4
  br label %if.end25

if.end25:                                         ; preds = %if.end3.i, %if.end.i, %lor.lhs.false.i, %if.then23, %qed_check_for_leaks.exit, %if.end
  %21 = load ptr, ptr %used_clusters, align 8
  call void @g_free(ptr noundef %21) #4
  br label %return

return:                                           ; preds = %entry, %if.end25
  %retval.0 = phi i32 [ %call18, %if.end25 ], [ -12, %entry ]
  ret i32 %retval.0
}